; Function Attrs: nounwind uwtable
define internal void @date_period_it_dtor(ptr noundef %0) #0 {
  %2 = getelementptr inbounds i8, ptr %0, i64 96
  %3 = load i8, ptr %2, align 8
  %.not.i = icmp eq i8 %3, 0
  br i1 %.not.i, label %date_period_it_invalidate_current.exit, label %4

4:                                                ; preds = %1
  %5 = getelementptr inbounds i8, ptr %0, i64 88
  tail call void @zval_ptr_dtor(ptr noundef nonnull %5) #25
  store i32 0, ptr %2, align 8
  br label %date_period_it_invalidate_current.exit

date_period_it_invalidate_current.exit:           ; preds = %1, %4
  %6 = getelementptr inbounds i8, ptr %0, i64 56
  tail call void @zval_ptr_dtor(ptr noundef nonnull %6) #25
  ret void
}